; Function Attrs: nounwind uwtable
define noalias nonnull ptr @l___private_Lean_Elab_PatternVar_0__Lean_Elab_Term_CollectPatternVars_throwCtorExpected___rarg___lambda__2(ptr noundef %0, ptr noundef %1, ptr noundef %2, ptr noundef %3, ptr readnone captures(none) %4, ptr readnone captures(none) %5, ptr readnone captures(none) %6, ptr readnone captures(none) %7, ptr readnone captures(none) %8, ptr readnone captures(none) %9, ptr readnone captures(none) %10, ptr readnone captures(none) %11, ptr noundef %12) local_unnamed_addr #0 {
  %14 = tail call zeroext i8 @l_Lean_Name_isSuffixOf(ptr noundef %2, ptr noundef %1) #6
  %15 = icmp eq i8 %14, 0
  br i1 %15, label %16, label %46

16:                                               ; preds = %13
  %17 = ptrtoint ptr %1 to i64
  %18 = and i64 %17, 1
  %.not = icmp eq i64 %18, 0
  br i1 %.not, label %19, label %lean_dec.exit25

19:                                               ; preds = %16
  %20 = load i32, ptr %1, align 4, !tbaa !8
  %21 = icmp sgt i32 %20, 1
  br i1 %21, label %22, label %24, !prof !15

22:                                               ; preds = %19
  %23 = add nsw i32 %20, -1
  store i32 %23, ptr %1, align 4, !tbaa !8
  br label %lean_dec.exit25

24:                                               ; preds = %19
  %.not.i = icmp eq i32 %20, 0
  br i1 %.not.i, label %lean_dec.exit25, label %25

25:                                               ; preds = %24
  tail call void @lean_dec_ref_cold(ptr noundef nonnull %1) #6
  br label %lean_dec.exit25

lean_dec.exit25:                                  ; preds = %25, %24, %22, %16
  %26 = ptrtoint ptr %0 to i64
  %27 = and i64 %26, 1
  %.not29 = icmp eq i64 %27, 0
  br i1 %.not29, label %28, label %lean_dec.exit

28:                                               ; preds = %lean_dec.exit25
  %29 = load i32, ptr %0, align 4, !tbaa !8
  %30 = icmp sgt i32 %29, 1
  br i1 %30, label %31, label %33, !prof !15

31:                                               ; preds = %28
  %32 = add nsw i32 %29, -1
  store i32 %32, ptr %0, align 4, !tbaa !8
  br label %lean_dec.exit

33:                                               ; preds = %28
  %.not.i26 = icmp eq i32 %29, 0
  br i1 %.not.i26, label %lean_dec.exit, label %34

34:                                               ; preds = %33
  tail call void @lean_dec_ref_cold(ptr noundef nonnull %0) #6
  br label %lean_dec.exit

lean_dec.exit:                                    ; preds = %34, %33, %31, %lean_dec.exit25
  tail call void @lean_inc_heartbeat() #6
  %35 = tail call noalias ptr @mi_malloc_small(i64 noundef 16) #6
  %36 = icmp eq ptr %35, null
  br i1 %36, label %37, label %lean_alloc_ctor.exit

37:                                               ; preds = %lean_dec.exit
  tail call void @lean_internal_panic_out_of_memory() #7
  unreachable

lean_alloc_ctor.exit:                             ; preds = %lean_dec.exit
  %38 = getelementptr inbounds nuw i8, ptr %35, i64 4
  store i32 1, ptr %35, align 4, !tbaa !8
  store i32 16842768, ptr %38, align 4
  %39 = getelementptr inbounds nuw i8, ptr %35, i64 8
  store ptr %3, ptr %39, align 8, !tbaa !11
  tail call void @lean_inc_heartbeat() #6
  %40 = tail call noalias ptr @mi_malloc_small(i64 noundef 24) #6
  %41 = icmp eq ptr %40, null
  br i1 %41, label %42, label %lean_alloc_ctor.exit28

42:                                               ; preds = %lean_alloc_ctor.exit
  tail call void @lean_internal_panic_out_of_memory() #7
  unreachable

lean_alloc_ctor.exit28:                           ; preds = %lean_alloc_ctor.exit
  %43 = getelementptr inbounds nuw i8, ptr %40, i64 4
  store i32 1, ptr %40, align 4, !tbaa !8
  store i32 131096, ptr %43, align 4
  %44 = getelementptr inbounds nuw i8, ptr %40, i64 8
  store ptr %35, ptr %44, align 8, !tbaa !11
  %45 = getelementptr inbounds nuw i8, ptr %40, i64 16
  store ptr %12, ptr %45, align 8, !tbaa !11
  br label %48

46:                                               ; preds = %13
  %47 = tail call ptr @l___private_Lean_Elab_PatternVar_0__Lean_Elab_Term_CollectPatternVars_throwCtorExpected___rarg___lambda__1(ptr noundef %0, ptr noundef %1, ptr noundef %3, ptr nonnull poison, ptr poison, ptr poison, ptr poison, ptr poison, ptr poison, ptr poison, ptr poison, ptr noundef %12)
  br label %48

48:                                               ; preds = %46, %lean_alloc_ctor.exit28
  %.0 = phi ptr [ %40, %lean_alloc_ctor.exit28 ], [ %47, %46 ]
  ret ptr %.0
}